target datalayout = "e-m:e-p270:32:32-p271:32:32-p272:64:64-i64:64-i128:128-f80:128-n8:16:32:64-S128"
target triple = "x86_64-pc-linux-gnu"

%struct.AVIOContext = type { ptr, ptr, i32, ptr, ptr, ptr, ptr, ptr, ptr, i64, i32, i32, i32, i32, i32, i64, ptr, ptr, ptr, ptr, i32, i32, ptr, ptr, ptr, i32, ptr, i64, i64 }

; Function Attrs: nounwind uwtable
define i32 @avio_r8(ptr noundef %0) #0 {
  %2 = alloca i32, align 4
  %3 = alloca ptr, align 8
  store ptr %0, ptr %3, align 8, !tbaa !14
  %4 = load ptr, ptr %3, align 8, !tbaa !14
  %5 = getelementptr inbounds nuw %struct.AVIOContext, ptr %4, i32 0, i32 3
  %6 = load ptr, ptr %5, align 8, !tbaa !23
  %7 = load ptr, ptr %3, align 8, !tbaa !14
  %8 = getelementptr inbounds nuw %struct.AVIOContext, ptr %7, i32 0, i32 4
  %9 = load ptr, ptr %8, align 8, !tbaa !38
  %10 = icmp uge ptr %6, %9
  br i1 %10, label %11, label %13

11:                                               ; preds = %1
  %12 = load ptr, ptr %3, align 8, !tbaa !14
  call void @fill_buffer(ptr noundef %12)
  br label %13

13:                                               ; preds = %11, %1
  %14 = load ptr, ptr %3, align 8, !tbaa !14
  %15 = getelementptr inbounds nuw %struct.AVIOContext, ptr %14, i32 0, i32 3
  %16 = load ptr, ptr %15, align 8, !tbaa !23
  %17 = load ptr, ptr %3, align 8, !tbaa !14
  %18 = getelementptr inbounds nuw %struct.AVIOContext, ptr %17, i32 0, i32 4
  %19 = load ptr, ptr %18, align 8, !tbaa !38
  %20 = icmp ult ptr %16, %19
  br i1 %20, label %21, label %28

21:                                               ; preds = %13
  %22 = load ptr, ptr %3, align 8, !tbaa !14
  %23 = getelementptr inbounds nuw %struct.AVIOContext, ptr %22, i32 0, i32 3
  %24 = load ptr, ptr %23, align 8, !tbaa !23
  %25 = getelementptr inbounds nuw i8, ptr %24, i32 1
  store ptr %25, ptr %23, align 8, !tbaa !23
  %26 = load i8, ptr %24, align 1, !tbaa !50
  %27 = zext i8 %26 to i32
  store i32 %27, ptr %2, align 4
  br label %29

28:                                               ; preds = %13
  store i32 0, ptr %2, align 4
  br label %29

29:                                               ; preds = %28, %21
  %30 = load i32, ptr %2, align 4
  ret i32 %30
}

; Function Attrs: nounwind uwtable
define i32 @ffio_read_leb(ptr noundef %0) #0 {
  %2 = alloca ptr, align 8
  %3 = alloca i32, align 4
  %4 = alloca i32, align 4
  %5 = alloca i32, align 4
  %6 = alloca i32, align 4
  %7 = alloca i32, align 4
  %8 = alloca i32, align 4
  store ptr %0, ptr %2, align 8, !tbaa !14
  call void @llvm.lifetime.start.p0(i64 4, ptr %3) #12
  call void @llvm.lifetime.start.p0(i64 4, ptr %4) #12
  store i32 0, ptr %4, align 4, !tbaa !11
  call void @llvm.lifetime.start.p0(i64 4, ptr %5) #12
  store i32 0, ptr %5, align 4, !tbaa !11
  br label %9

9:                                                ; preds = %34, %1
  call void @llvm.lifetime.start.p0(i64 4, ptr %6) #12
  %10 = load ptr, ptr %2, align 8, !tbaa !14
  %11 = call i32 @avio_r8(ptr noundef %10)
  store i32 %11, ptr %6, align 4, !tbaa !11
  call void @llvm.lifetime.start.p0(i64 4, ptr %7) #12
  %12 = load i32, ptr %6, align 4, !tbaa !11
  %13 = and i32 %12, 127
  store i32 %13, ptr %7, align 4, !tbaa !11
  %14 = load i32, ptr %6, align 4, !tbaa !11
  %15 = and i32 %14, 128
  store i32 %15, ptr %3, align 4, !tbaa !11
  %16 = load i32, ptr %4, align 4, !tbaa !11
  %17 = icmp sle i32 %16, 4
  br i1 %17, label %18, label %25

18:                                               ; preds = %9
  %19 = load i32, ptr %7, align 4, !tbaa !11
  %20 = load i32, ptr %4, align 4, !tbaa !11
  %21 = mul nsw i32 %20, 7
  %22 = shl i32 %19, %21
  %23 = load i32, ptr %5, align 4, !tbaa !11
  %24 = or i32 %23, %22
  store i32 %24, ptr %5, align 4, !tbaa !11
  br label %25

25:                                               ; preds = %18, %9
  %26 = load i32, ptr %4, align 4, !tbaa !11
  %27 = add nsw i32 %26, 1
  store i32 %27, ptr %4, align 4, !tbaa !11
  %28 = icmp eq i32 %27, 8
  br i1 %28, label %29, label %30

29:                                               ; preds = %25
  store i32 2, ptr %8, align 4
  br label %31

30:                                               ; preds = %25
  store i32 0, ptr %8, align 4
  br label %31

31:                                               ; preds = %30, %29
  call void @llvm.lifetime.end.p0(i64 4, ptr %7) #12
  call void @llvm.lifetime.end.p0(i64 4, ptr %6) #12
  %32 = load i32, ptr %8, align 4
  switch i32 %32, label %39 [
    i32 0, label %33
    i32 2, label %37
  ]

33:                                               ; preds = %31
  br label %34

34:                                               ; preds = %33
  %35 = load i32, ptr %3, align 4, !tbaa !11
  %36 = icmp ne i32 %35, 0
  br i1 %36, label %9, label %37, !llvm.loop !85

37:                                               ; preds = %34, %31
  %38 = load i32, ptr %5, align 4, !tbaa !11
  store i32 1, ptr %8, align 4
  call void @llvm.lifetime.end.p0(i64 4, ptr %5) #12
  call void @llvm.lifetime.end.p0(i64 4, ptr %4) #12
  call void @llvm.lifetime.end.p0(i64 4, ptr %3) #12
  ret i32 %38

39:                                               ; preds = %31
  unreachable
}