; Function Attrs: nounwind uwtable
define i32 @ffio_read_leb(ptr noundef %0) local_unnamed_addr #3 {
  %2 = getelementptr inbounds nuw i8, ptr %0, i64 24
  %3 = getelementptr inbounds nuw i8, ptr %0, i64 32
  %.pre = load ptr, ptr %2, align 8, !tbaa !16
  %.pre12 = load ptr, ptr %3, align 8, !tbaa !19
  br label %4

4:                                                ; preds = %avio_r8.exit, %1
  %5 = phi ptr [ %.pre12, %1 ], [ %9, %avio_r8.exit ]
  %6 = phi ptr [ %.pre, %1 ], [ %16, %avio_r8.exit ]
  %.011 = phi i32 [ 0, %1 ], [ %.1, %avio_r8.exit ]
  %.010 = phi i32 [ 0, %1 ], [ %22, %avio_r8.exit ]
  %.not.i = icmp ult ptr %6, %5
  br i1 %.not.i, label %8, label %7

7:                                                ; preds = %4
  tail call fastcc void @fill_buffer(ptr noundef nonnull %0)
  %.pre.i = load ptr, ptr %2, align 8, !tbaa !16
  %.pre7.i = load ptr, ptr %3, align 8, !tbaa !19
  br label %8

8:                                                ; preds = %7, %4
  %9 = phi ptr [ %.pre7.i, %7 ], [ %5, %4 ]
  %10 = phi ptr [ %.pre.i, %7 ], [ %6, %4 ]
  %11 = icmp ult ptr %10, %9
  br i1 %11, label %12, label %avio_r8.exit

12:                                               ; preds = %8
  %13 = getelementptr inbounds nuw i8, ptr %10, i64 1
  store ptr %13, ptr %2, align 8, !tbaa !16
  %14 = load i8, ptr %10, align 1, !tbaa !33
  %15 = zext i8 %14 to i32
  br label %avio_r8.exit

avio_r8.exit:                                     ; preds = %8, %12
  %16 = phi ptr [ %13, %12 ], [ %10, %8 ]
  %.0.i = phi i32 [ %15, %12 ], [ 0, %8 ]
  %17 = icmp samesign ult i32 %.010, 5
  %18 = and i32 %.0.i, 127
  %19 = mul nuw nsw i32 %.010, 7
  %20 = shl i32 %18, %19
  %21 = select i1 %17, i32 %20, i32 0
  %.1 = or i32 %21, %.011
  %22 = add nuw nsw i32 %.010, 1
  %23 = icmp eq i32 %22, 8
  %.not = icmp samesign ult i32 %.0.i, 128
  %or.cond = select i1 %23, i1 true, i1 %.not
  br i1 %or.cond, label %24, label %4, !llvm.loop !66

24:                                               ; preds = %avio_r8.exit
  ret i32 %.1
}